; Function Attrs: mustprogress nounwind uwtable
define dso_local void @_ZN4llvm15MachineFunction29initTargetMachineFunctionInfoERKNS_19TargetSubtargetInfoE(ptr noundef nonnull align 8 dereferenceable(1041) %0, ptr noundef nonnull align 8 dereferenceable(288) %1) local_unnamed_addr #0 align 2 {
  %3 = getelementptr inbounds nuw i8, ptr %0, i64 8
  %4 = load ptr, ptr %3, align 8
  %5 = getelementptr inbounds nuw i8, ptr %0, i64 128
  %6 = load ptr, ptr %0, align 8
  %7 = load ptr, ptr %4, align 8
  %8 = getelementptr inbounds nuw i8, ptr %7, i64 32
  %9 = load ptr, ptr %8, align 8
  %10 = tail call noundef ptr %9(ptr noundef nonnull align 8 dereferenceable(1232) %4, ptr noundef nonnull align 8 dereferenceable(96) %5, ptr noundef nonnull align 8 dereferenceable(136) %6, ptr noundef nonnull %1) #25
  %11 = getelementptr inbounds nuw i8, ptr %0, i64 40
  store ptr %10, ptr %11, align 8
  ret void
}